target datalayout = "e-m:e-p270:32:32-p271:32:32-p272:64:64-i64:64-i128:128-f80:128-n8:16:32:64-S128"
target triple = "x86_64-pc-linux-gnu"

%"class.icu_77::BytesTrie" = type <{ ptr, ptr, ptr, i32, [4 x i8] }>

; Function Attrs: inlinehint mustprogress uwtable
define linkonce_odr noundef i32 @_ZNK6icu_779BytesTrie8getValueEv(ptr noundef nonnull align 8 dereferenceable(28) %0) #6 comdat align 2 {
  %2 = alloca ptr, align 8
  %3 = alloca ptr, align 8
  %4 = alloca i32, align 4
  store ptr %0, ptr %2, align 8, !tbaa !47
  %5 = load ptr, ptr %2, align 8
  call void @llvm.lifetime.start.p0(i64 8, ptr %3) #10
  %6 = getelementptr inbounds nuw %"class.icu_77::BytesTrie", ptr %5, i32 0, i32 2
  %7 = load ptr, ptr %6, align 8, !tbaa !51
  store ptr %7, ptr %3, align 8, !tbaa !53
  call void @llvm.lifetime.start.p0(i64 4, ptr %4) #10
  %8 = load ptr, ptr %3, align 8, !tbaa !53
  %9 = getelementptr inbounds nuw i8, ptr %8, i32 1
  store ptr %9, ptr %3, align 8, !tbaa !53
  %10 = load i8, ptr %8, align 1, !tbaa !77
  %11 = zext i8 %10 to i32
  store i32 %11, ptr %4, align 4, !tbaa !40
  %12 = load ptr, ptr %3, align 8, !tbaa !53
  %13 = load i32, ptr %4, align 4, !tbaa !40
  %14 = ashr i32 %13, 1
  %15 = call noundef i32 @_ZN6icu_779BytesTrie9readValueEPKhi(ptr noundef %12, i32 noundef %14)
  call void @llvm.lifetime.end.p0(i64 4, ptr %4) #10
  call void @llvm.lifetime.end.p0(i64 8, ptr %3) #10
  ret i32 %15
}

; Function Attrs: mustprogress nounwind uwtable
define linkonce_odr noundef nonnull align 8 dereferenceable(28) ptr @_ZN6icu_779BytesTrie14resetToState64Em(ptr noundef nonnull align 8 dereferenceable(28) %0, i64 noundef %1) #4 comdat align 2 {
  %3 = alloca ptr, align 8
  %4 = alloca i64, align 8
  store ptr %0, ptr %3, align 8, !tbaa !47
  store i64 %1, ptr %4, align 8, !tbaa !68
  %5 = load ptr, ptr %3, align 8
  %6 = load i64, ptr %4, align 8, !tbaa !68
  %7 = lshr i64 %6, 59
  %8 = trunc i64 %7 to i32
  %9 = sub nsw i32 %8, 2
  %10 = getelementptr inbounds nuw %"class.icu_77::BytesTrie", ptr %5, i32 0, i32 3
  store i32 %9, ptr %10, align 8, !tbaa !52
  %11 = getelementptr inbounds nuw %"class.icu_77::BytesTrie", ptr %5, i32 0, i32 1
  %12 = load ptr, ptr %11, align 8, !tbaa !50
  %13 = load i64, ptr %4, align 8, !tbaa !68
  %14 = and i64 %13, 576460752303423487
  %15 = getelementptr inbounds nuw i8, ptr %12, i64 %14
  %16 = getelementptr inbounds nuw %"class.icu_77::BytesTrie", ptr %5, i32 0, i32 2
  store ptr %15, ptr %16, align 8, !tbaa !51
  ret ptr %5
}

; Function Attrs: mustprogress uwtable
define noundef i32 @_ZN6icu_7714LocaleDistance8trieNextERNS_9BytesTrieEPKcb(ptr noundef nonnull align 8 dereferenceable(28) %0, ptr noundef %1, i1 noundef zeroext %2) #0 align 2 {
  %4 = alloca i32, align 4
  %5 = alloca ptr, align 8
  %6 = alloca ptr, align 8
  %7 = alloca i8, align 1
  %8 = alloca i8, align 1
  %9 = alloca i32, align 4
  %10 = alloca i8, align 1
  %11 = alloca i32, align 4
  %12 = alloca i32, align 4
  store ptr %0, ptr %5, align 8, !tbaa !47
  store ptr %1, ptr %6, align 8, !tbaa !53
  %13 = zext i1 %2 to i8
  store i8 %13, ptr %7, align 1, !tbaa !70
  call void @llvm.lifetime.start.p0(i64 1, ptr %8) #10
  %14 = load ptr, ptr %6, align 8, !tbaa !53
  %15 = load i8, ptr %14, align 1, !tbaa !77
  store i8 %15, ptr %8, align 1, !tbaa !77
  %16 = zext i8 %15 to i32
  %17 = icmp eq i32 %16, 0
  br i1 %17, label %18, label %19

18:                                               ; preds = %3
  store i32 -1, ptr %4, align 4
  store i32 1, ptr %9, align 4
  br label %72

19:                                               ; preds = %3
  br label %20

20:                                               ; preds = %71, %19
  %21 = load i8, ptr %8, align 1, !tbaa !77
  store i8 %21, ptr %8, align 1, !tbaa !77
  call void @llvm.lifetime.start.p0(i64 1, ptr %10) #10
  %22 = load ptr, ptr %6, align 8, !tbaa !53
  %23 = getelementptr inbounds nuw i8, ptr %22, i32 1
  store ptr %23, ptr %6, align 8, !tbaa !53
  %24 = load i8, ptr %23, align 1, !tbaa !77
  store i8 %24, ptr %10, align 1, !tbaa !77
  %25 = load i8, ptr %10, align 1, !tbaa !77
  %26 = zext i8 %25 to i32
  %27 = icmp ne i32 %26, 0
  br i1 %27, label %28, label %37

28:                                               ; preds = %20
  %29 = load ptr, ptr %5, align 8, !tbaa !47
  %30 = load i8, ptr %8, align 1, !tbaa !77
  %31 = zext i8 %30 to i32
  %32 = call noundef i32 @_ZN6icu_779BytesTrie4nextEi(ptr noundef nonnull align 8 dereferenceable(28) %29, i32 noundef %31)
  %33 = and i32 %32, 1
  %34 = icmp ne i32 %33, 0
  br i1 %34, label %36, label %35

35:                                               ; preds = %28
  store i32 -1, ptr %4, align 4
  store i32 1, ptr %9, align 4
  br label %69

36:                                               ; preds = %28
  br label %67

37:                                               ; preds = %20
  call void @llvm.lifetime.start.p0(i64 4, ptr %11) #10
  %38 = load ptr, ptr %5, align 8, !tbaa !47
  %39 = load i8, ptr %8, align 1, !tbaa !77
  %40 = zext i8 %39 to i32
  %41 = or i32 %40, 128
  %42 = call noundef i32 @_ZN6icu_779BytesTrie4nextEi(ptr noundef nonnull align 8 dereferenceable(28) %38, i32 noundef %41)
  store i32 %42, ptr %11, align 4, !tbaa !78
  %43 = load i8, ptr %7, align 1, !tbaa !70, !range !72, !noundef !73
  %44 = trunc i8 %43 to i1
  br i1 %44, label %45, label %59

45:                                               ; preds = %37
  %46 = load i32, ptr %11, align 4, !tbaa !78
  %47 = icmp sge i32 %46, 2
  br i1 %47, label %48, label %58

48:                                               ; preds = %45
  call void @llvm.lifetime.start.p0(i64 4, ptr %12) #10
  %49 = load ptr, ptr %5, align 8, !tbaa !47
  %50 = call noundef i32 @_ZNK6icu_779BytesTrie8getValueEv(ptr noundef nonnull align 8 dereferenceable(28) %49)
  store i32 %50, ptr %12, align 4, !tbaa !40
  %51 = load i32, ptr %11, align 4, !tbaa !78
  %52 = icmp eq i32 %51, 2
  br i1 %52, label %53, label %56

53:                                               ; preds = %48
  %54 = load i32, ptr %12, align 4, !tbaa !40
  %55 = or i32 %54, 256
  store i32 %55, ptr %12, align 4, !tbaa !40
  br label %56

56:                                               ; preds = %53, %48
  %57 = load i32, ptr %12, align 4, !tbaa !40
  store i32 %57, ptr %4, align 4
  store i32 1, ptr %9, align 4
  call void @llvm.lifetime.end.p0(i64 4, ptr %12) #10
  br label %66

58:                                               ; preds = %45
  br label %65

59:                                               ; preds = %37
  %60 = load i32, ptr %11, align 4, !tbaa !78
  %61 = and i32 %60, 1
  %62 = icmp ne i32 %61, 0
  br i1 %62, label %63, label %64

63:                                               ; preds = %59
  store i32 0, ptr %4, align 4
  store i32 1, ptr %9, align 4
  br label %66

64:                                               ; preds = %59
  br label %65

65:                                               ; preds = %64, %58
  store i32 -1, ptr %4, align 4
  store i32 1, ptr %9, align 4
  br label %66

66:                                               ; preds = %65, %63, %56
  call void @llvm.lifetime.end.p0(i64 4, ptr %11) #10
  br label %69

67:                                               ; preds = %36
  %68 = load i8, ptr %10, align 1, !tbaa !77
  store i8 %68, ptr %8, align 1, !tbaa !77
  store i32 0, ptr %9, align 4
  br label %69

69:                                               ; preds = %67, %66, %35
  call void @llvm.lifetime.end.p0(i64 1, ptr %10) #10
  %70 = load i32, ptr %9, align 4
  switch i32 %70, label %72 [
    i32 0, label %71
  ]

71:                                               ; preds = %69
  br label %20, !llvm.loop !80

72:                                               ; preds = %69, %18
  call void @llvm.lifetime.end.p0(i64 1, ptr %8) #10
  %73 = load i32, ptr %4, align 4
  ret i32 %73
}

; Function Attrs: mustprogress uwtable
define noundef i32 @_ZN6icu_7714LocaleDistance24getDesSuppScriptDistanceERNS_9BytesTrieEmPKcS4_(ptr noundef nonnull align 8 dereferenceable(28) %0, i64 noundef %1, ptr noundef %2, ptr noundef %3) #0 align 2 {
  %5 = alloca ptr, align 8
  %6 = alloca i64, align 8
  %7 = alloca ptr, align 8
  %8 = alloca ptr, align 8
  %9 = alloca i32, align 4
  %10 = alloca i32, align 4
  store ptr %0, ptr %5, align 8, !tbaa !47
  store i64 %1, ptr %6, align 8, !tbaa !68
  store ptr %2, ptr %7, align 8, !tbaa !53
  store ptr %3, ptr %8, align 8, !tbaa !53
  call void @llvm.lifetime.start.p0(i64 4, ptr %9) #10
  %11 = load ptr, ptr %5, align 8, !tbaa !47
  %12 = load ptr, ptr %7, align 8, !tbaa !53
  %13 = call noundef i32 @_ZN6icu_7714LocaleDistance8trieNextERNS_9BytesTrieEPKcb(ptr noundef nonnull align 8 dereferenceable(28) %11, ptr noundef %12, i1 noundef zeroext false)
  store i32 %13, ptr %9, align 4, !tbaa !40
  %14 = load i32, ptr %9, align 4, !tbaa !40
  %15 = icmp sge i32 %14, 0
  br i1 %15, label %16, label %20

16:                                               ; preds = %4
  %17 = load ptr, ptr %5, align 8, !tbaa !47
  %18 = load ptr, ptr %8, align 8, !tbaa !53
  %19 = call noundef i32 @_ZN6icu_7714LocaleDistance8trieNextERNS_9BytesTrieEPKcb(ptr noundef nonnull align 8 dereferenceable(28) %17, ptr noundef %18, i1 noundef zeroext true)
  store i32 %19, ptr %9, align 4, !tbaa !40
  br label %20

20:                                               ; preds = %16, %4
  %21 = load i32, ptr %9, align 4, !tbaa !40
  %22 = icmp slt i32 %21, 0
  br i1 %22, label %23, label %43

23:                                               ; preds = %20
  call void @llvm.lifetime.start.p0(i64 4, ptr %10) #10
  %24 = load ptr, ptr %5, align 8, !tbaa !47
  %25 = load i64, ptr %6, align 8, !tbaa !68
  %26 = call noundef nonnull align 8 dereferenceable(28) ptr @_ZN6icu_779BytesTrie14resetToState64Em(ptr noundef nonnull align 8 dereferenceable(28) %24, i64 noundef %25)
  %27 = call noundef i32 @_ZN6icu_779BytesTrie4nextEi(ptr noundef nonnull align 8 dereferenceable(28) %26, i32 noundef 42)
  store i32 %27, ptr %10, align 4, !tbaa !78
  %28 = load ptr, ptr %7, align 8, !tbaa !53
  %29 = load ptr, ptr %8, align 8, !tbaa !53
  %30 = call i32 @strcmp(ptr noundef %28, ptr noundef %29) #11
  %31 = icmp eq i32 %30, 0
  br i1 %31, label %32, label %33

32:                                               ; preds = %23
  store i32 0, ptr %9, align 4, !tbaa !40
  br label %36

33:                                               ; preds = %23
  %34 = load ptr, ptr %5, align 8, !tbaa !47
  %35 = call noundef i32 @_ZNK6icu_779BytesTrie8getValueEv(ptr noundef nonnull align 8 dereferenceable(28) %34)
  store i32 %35, ptr %9, align 4, !tbaa !40
  br label %36

36:                                               ; preds = %33, %32
  %37 = load i32, ptr %10, align 4, !tbaa !78
  %38 = icmp eq i32 %37, 2
  br i1 %38, label %39, label %42

39:                                               ; preds = %36
  %40 = load i32, ptr %9, align 4, !tbaa !40
  %41 = or i32 %40, 256
  store i32 %41, ptr %9, align 4, !tbaa !40
  br label %42

42:                                               ; preds = %39, %36
  call void @llvm.lifetime.end.p0(i64 4, ptr %10) #10
  br label %43

43:                                               ; preds = %42, %20
  %44 = load i32, ptr %9, align 4, !tbaa !40
  call void @llvm.lifetime.end.p0(i64 4, ptr %9) #10
  ret i32 %44
}