; Function Attrs: mustprogress uwtable
define noundef i32 @_ZN6icu_7714LocaleDistance24getDesSuppScriptDistanceERNS_9BytesTrieEmPKcS4_(ptr noundef nonnull align 8 dereferenceable(28) %0, i64 noundef %1, ptr noundef readonly captures(none) %2, ptr noundef readonly captures(none) %3) local_unnamed_addr #0 align 2 {
  %5 = load i8, ptr %2, align 1, !tbaa !54
  %6 = icmp eq i8 %5, 0
  br i1 %6, label %_ZN6icu_7714LocaleDistance8trieNextERNS_9BytesTrieEPKcb.exit20.thread, label %.preheader.i

.preheader.i:                                     ; preds = %4, %14
  %.021.i = phi i8 [ %8, %14 ], [ %5, %4 ]
  %.018.i = phi ptr [ %7, %14 ], [ %2, %4 ]
  %7 = getelementptr inbounds nuw i8, ptr %.018.i, i64 1
  %8 = load i8, ptr %7, align 1, !tbaa !54
  %.not.i = icmp eq i8 %8, 0
  br i1 %.not.i, label %9, label %14

9:                                                ; preds = %.preheader.i
  %10 = or i8 %.021.i, -128
  %11 = zext i8 %10 to i32
  %12 = tail call noundef i32 @_ZN6icu_779BytesTrie4nextEi(ptr noundef nonnull align 8 dereferenceable(28) %0, i32 noundef %11)
  %13 = and i32 %12, 1
  %.not24.i = icmp eq i32 %13, 0
  br i1 %.not24.i, label %_ZN6icu_7714LocaleDistance8trieNextERNS_9BytesTrieEPKcb.exit20.thread, label %_ZN6icu_7714LocaleDistance8trieNextERNS_9BytesTrieEPKcb.exit

14:                                               ; preds = %.preheader.i
  %15 = zext i8 %.021.i to i32
  %16 = tail call noundef i32 @_ZN6icu_779BytesTrie4nextEi(ptr noundef nonnull align 8 dereferenceable(28) %0, i32 noundef %15)
  %17 = and i32 %16, 1
  %.not25.not.i = icmp eq i32 %17, 0
  br i1 %.not25.not.i, label %_ZN6icu_7714LocaleDistance8trieNextERNS_9BytesTrieEPKcb.exit20.thread, label %.preheader.i, !llvm.loop !55

_ZN6icu_7714LocaleDistance8trieNextERNS_9BytesTrieEPKcb.exit: ; preds = %9
  %18 = load i8, ptr %3, align 1, !tbaa !54
  %19 = icmp eq i8 %18, 0
  br i1 %19, label %_ZN6icu_7714LocaleDistance8trieNextERNS_9BytesTrieEPKcb.exit20.thread, label %.preheader.i14

.preheader.i14:                                   ; preds = %_ZN6icu_7714LocaleDistance8trieNextERNS_9BytesTrieEPKcb.exit, %27
  %.021.i15 = phi i8 [ %21, %27 ], [ %18, %_ZN6icu_7714LocaleDistance8trieNextERNS_9BytesTrieEPKcb.exit ]
  %.018.i16 = phi ptr [ %20, %27 ], [ %3, %_ZN6icu_7714LocaleDistance8trieNextERNS_9BytesTrieEPKcb.exit ]
  %20 = getelementptr inbounds nuw i8, ptr %.018.i16, i64 1
  %21 = load i8, ptr %20, align 1, !tbaa !54
  %.not.i17 = icmp eq i8 %21, 0
  br i1 %.not.i17, label %22, label %27

22:                                               ; preds = %.preheader.i14
  %23 = or i8 %.021.i15, -128
  %24 = zext i8 %23 to i32
  %25 = tail call noundef i32 @_ZN6icu_779BytesTrie4nextEi(ptr noundef nonnull align 8 dereferenceable(28) %0, i32 noundef %24)
  %26 = icmp sgt i32 %25, 1
  br i1 %26, label %_ZN6icu_7714LocaleDistance8trieNextERNS_9BytesTrieEPKcb.exit20, label %_ZN6icu_7714LocaleDistance8trieNextERNS_9BytesTrieEPKcb.exit20.thread

27:                                               ; preds = %.preheader.i14
  %28 = zext i8 %.021.i15 to i32
  %29 = tail call noundef i32 @_ZN6icu_779BytesTrie4nextEi(ptr noundef nonnull align 8 dereferenceable(28) %0, i32 noundef %28)
  %30 = and i32 %29, 1
  %.not25.not.i18 = icmp eq i32 %30, 0
  br i1 %.not25.not.i18, label %_ZN6icu_7714LocaleDistance8trieNextERNS_9BytesTrieEPKcb.exit20.thread, label %.preheader.i14, !llvm.loop !55

_ZN6icu_7714LocaleDistance8trieNextERNS_9BytesTrieEPKcb.exit20: ; preds = %22
  %31 = getelementptr inbounds nuw i8, ptr %0, i64 16
  %32 = load ptr, ptr %31, align 8, !tbaa !30
  %33 = getelementptr inbounds nuw i8, ptr %32, i64 1
  %34 = load i8, ptr %32, align 1, !tbaa !54
  %35 = lshr i8 %34, 1
  %36 = zext nneg i8 %35 to i32
  %37 = tail call noundef i32 @_ZN6icu_779BytesTrie9readValueEPKhi(ptr noundef nonnull %33, i32 noundef %36)
  %38 = icmp eq i32 %25, 2
  %39 = or i32 %37, 256
  %spec.select.i = select i1 %38, i32 %39, i32 %37
  %40 = icmp slt i32 %spec.select.i, 0
  br i1 %40, label %_ZN6icu_7714LocaleDistance8trieNextERNS_9BytesTrieEPKcb.exit20.thread, label %63

_ZN6icu_7714LocaleDistance8trieNextERNS_9BytesTrieEPKcb.exit20.thread: ; preds = %14, %27, %9, %4, %22, %_ZN6icu_7714LocaleDistance8trieNextERNS_9BytesTrieEPKcb.exit, %_ZN6icu_7714LocaleDistance8trieNextERNS_9BytesTrieEPKcb.exit20
  %41 = lshr i64 %1, 59
  %42 = trunc nuw nsw i64 %41 to i32
  %43 = add nsw i32 %42, -2
  %44 = getelementptr inbounds nuw i8, ptr %0, i64 24
  store i32 %43, ptr %44, align 8, !tbaa !31
  %45 = getelementptr inbounds nuw i8, ptr %0, i64 8
  %46 = load ptr, ptr %45, align 8, !tbaa !29
  %47 = and i64 %1, 576460752303423487
  %48 = getelementptr inbounds nuw i8, ptr %46, i64 %47
  %49 = getelementptr inbounds nuw i8, ptr %0, i64 16
  store ptr %48, ptr %49, align 8, !tbaa !30
  %50 = tail call noundef i32 @_ZN6icu_779BytesTrie4nextEi(ptr noundef nonnull align 8 dereferenceable(28) %0, i32 noundef 42)
  %51 = tail call i32 @strcmp(ptr noundef nonnull dereferenceable(1) %2, ptr noundef nonnull dereferenceable(1) %3) #12
  %52 = icmp eq i32 %51, 0
  br i1 %52, label %60, label %53

53:                                               ; preds = %_ZN6icu_7714LocaleDistance8trieNextERNS_9BytesTrieEPKcb.exit20.thread
  %54 = load ptr, ptr %49, align 8, !tbaa !30
  %55 = getelementptr inbounds nuw i8, ptr %54, i64 1
  %56 = load i8, ptr %54, align 1, !tbaa !54
  %57 = lshr i8 %56, 1
  %58 = zext nneg i8 %57 to i32
  %59 = tail call noundef i32 @_ZN6icu_779BytesTrie9readValueEPKhi(ptr noundef nonnull %55, i32 noundef %58)
  br label %60

60:                                               ; preds = %_ZN6icu_7714LocaleDistance8trieNextERNS_9BytesTrieEPKcb.exit20.thread, %53
  %.2 = phi i32 [ %59, %53 ], [ 0, %_ZN6icu_7714LocaleDistance8trieNextERNS_9BytesTrieEPKcb.exit20.thread ]
  %61 = icmp eq i32 %50, 2
  %62 = or i32 %.2, 256
  %spec.select = select i1 %61, i32 %62, i32 %.2
  br label %63

63:                                               ; preds = %60, %_ZN6icu_7714LocaleDistance8trieNextERNS_9BytesTrieEPKcb.exit20
  %.1 = phi i32 [ %spec.select, %60 ], [ %spec.select.i, %_ZN6icu_7714LocaleDistance8trieNextERNS_9BytesTrieEPKcb.exit20 ]
  ret i32 %.1
}